target datalayout = "e-m:e-p270:32:32-p271:32:32-p272:64:64-i64:64-i128:128-f80:128-n8:16:32:64-S128"
target triple = "x86_64-pc-linux-gnu"

%struct.uv_tcp_s = type { ptr, ptr, i32, ptr, %struct.uv__queue, %union.anon, ptr, i32, i64, ptr, ptr, ptr, ptr, %struct.uv__io_s, %struct.uv__queue, %struct.uv__queue, ptr, i32, i32, ptr }
%union.anon = type { [4 x ptr] }
%struct.uv__io_s = type { ptr, %struct.uv__queue, %struct.uv__queue, i32, i32, i32 }
%struct.uv__queue = type { ptr, ptr }

; Function Attrs: nounwind uwtable
define dso_local i32 @uv_tcp_keepalive(ptr noundef %0, i32 noundef %1, i32 noundef %2) #0 {
  %4 = alloca i32, align 4
  %5 = alloca ptr, align 8
  %6 = alloca i32, align 4
  %7 = alloca i32, align 4
  %8 = alloca i32, align 4
  %9 = alloca i32, align 4
  store ptr %0, ptr %5, align 8
  store i32 %1, ptr %6, align 4
  store i32 %2, ptr %7, align 4
  call void @llvm.lifetime.start.p0(i64 4, ptr %8) #8
  %10 = load ptr, ptr %5, align 8
  %11 = getelementptr inbounds nuw %struct.uv_tcp_s, ptr %10, i32 0, i32 13
  %12 = getelementptr inbounds nuw %struct.uv__io_s, ptr %11, i32 0, i32 5
  %13 = load i32, ptr %12, align 8
  %14 = icmp ne i32 %13, -1
  br i1 %14, label %15, label %28

15:                                               ; preds = %3
  %16 = load ptr, ptr %5, align 8
  %17 = getelementptr inbounds nuw %struct.uv_tcp_s, ptr %16, i32 0, i32 13
  %18 = getelementptr inbounds nuw %struct.uv__io_s, ptr %17, i32 0, i32 5
  %19 = load i32, ptr %18, align 8
  %20 = load i32, ptr %6, align 4
  %21 = load i32, ptr %7, align 4
  %22 = call i32 @uv__tcp_keepalive(i32 noundef %19, i32 noundef %20, i32 noundef %21)
  store i32 %22, ptr %8, align 4
  %23 = load i32, ptr %8, align 4
  %24 = icmp ne i32 %23, 0
  br i1 %24, label %25, label %27

25:                                               ; preds = %15
  %26 = load i32, ptr %8, align 4
  store i32 %26, ptr %4, align 4
  store i32 1, ptr %9, align 4
  br label %42

27:                                               ; preds = %15
  br label %28

28:                                               ; preds = %27, %3
  %29 = load i32, ptr %6, align 4
  %30 = icmp ne i32 %29, 0
  br i1 %30, label %31, label %36

31:                                               ; preds = %28
  %32 = load ptr, ptr %5, align 8
  %33 = getelementptr inbounds nuw %struct.uv_tcp_s, ptr %32, i32 0, i32 7
  %34 = load i32, ptr %33, align 8
  %35 = or i32 %34, 33554432
  store i32 %35, ptr %33, align 8
  br label %41

36:                                               ; preds = %28
  %37 = load ptr, ptr %5, align 8
  %38 = getelementptr inbounds nuw %struct.uv_tcp_s, ptr %37, i32 0, i32 7
  %39 = load i32, ptr %38, align 8
  %40 = and i32 %39, -33554433
  store i32 %40, ptr %38, align 8
  br label %41

41:                                               ; preds = %36, %31
  store i32 0, ptr %4, align 4
  store i32 1, ptr %9, align 4
  br label %42

42:                                               ; preds = %41, %25
  call void @llvm.lifetime.end.p0(i64 4, ptr %8) #8
  %43 = load i32, ptr %4, align 4
  ret i32 %43
}