; Function Attrs: nounwind uwtable
define dso_local range(i32 -2147483647, -2147483648) i32 @uv_tcp_keepalive(ptr noundef captures(none) %0, i32 noundef %1, i32 noundef %2) local_unnamed_addr #0 {
  %4 = getelementptr inbounds nuw i8, ptr %0, i64 184
  %5 = load i32, ptr %4, align 8
  %.not = icmp eq i32 %5, -1
  br i1 %.not, label %.sink.split, label %6

6:                                                ; preds = %3
  %7 = tail call i32 @uv__tcp_keepalive(i32 noundef %5, i32 noundef %1, i32 noundef %2)
  %.not11 = icmp eq i32 %7, 0
  br i1 %.not11, label %.sink.split, label %11

.sink.split:                                      ; preds = %6, %3
  %.not12 = icmp eq i32 %1, 0
  %8 = getelementptr inbounds nuw i8, ptr %0, i64 88
  %9 = load i32, ptr %8, align 8
  %10 = and i32 %9, -33554433
  %masksel = select i1 %.not12, i32 0, i32 33554432
  %.sink = or disjoint i32 %10, %masksel
  store i32 %.sink, ptr %8, align 8
  br label %11

11:                                               ; preds = %.sink.split, %6
  %.0 = phi i32 [ %7, %6 ], [ 0, %.sink.split ]
  ret i32 %.0
}